((lp1
S'ROOT'
p2
aS'the'
p3
aS'boy'
p4
aS'laying'
p5
aS'face'
p6
aS'down'
p7
aS'on'
p8
aS'a'
aS'skateboard'
p9
aS'is'
p10
aS'being'
p11
aS'pushed'
p12
aS'along'
p13
aS'ground'
p14
aS'by'
p15
aS'another'
p16
aS'Two'
p17
aS'girls'
p18
aS'play'
p19
aS'in'
p20
aS'courtyard'
p21
aS'people'
p22
aS'long'
p23
aS'small'
p24
aS'children'
p25
aS'red'
p26
aS'shirts'
p27
aS'playing'
p28
aS'two'
p29
aS'young'
p30
aS'going'
p31
aS'across'
p32
aS'sidewa'
p33
a(lp34
S'root'
p35
aS'det'
p36
aS'acl'
p37
aS'ccomp'
p38
aS'compound:prt'
p39
aS'nmod'
p40
aS'case'
p41
aS'nsubjpass'
p42
aS'aux'
p43
aS'auxpass'
p44
aS'nummod'
p45
aS'nsubj'
p46
aS'amod'
p47
a(dp48
S'train'
p49
(lp50
(idtree_util_dtr
dtree
p51
(dp52
S'ans_ind'
p53
I-1
sS'nodes'
p54
(lp55
(idtree_util_dtr
node
p56
(dp57
S'kids'
p58
(lp59
(I11
g35
tp60
asS'word'
p61
g2
sS'parent'
p62
(lp63
sS'ind'
p64
I0
sS'finished'
p65
I0
sS'is_word'
p66
I1
sba(idtree_util_dtr
node
p67
(dp68
g58
(lp69
sg61
g3
sg62
(lp70
(I2
g36
tp71
asg64
I1
sg65
I0
sg66
I1
sba(idtree_util_dtr
node
p72
(dp73
g58
(lp74
(I1
g36
tp75
a(I3
g37
tp76
asg61
g4
sg62
(lp77
(I11
g42
tp78
asg64
I2
sg65
I0
sg66
I1
sba(idtree_util_dtr
node
p79
(dp80
g58
(lp81
(I4
g38
tp82
asg61
g5
sg62
(lp83
(I2
g37
tp84
asg64
I3
sg65
I0
sg66
I1
sba(idtree_util_dtr
node
p85
(dp86
g58
(lp87
(I5
g39
tp88
a(I8
g40
tp89
asg61
g6
sg62
(lp90
(I3
g38
tp91
asg64
I4
sg65
I0
sg66
I1
sba(idtree_util_dtr
node
p92
(dp93
g58
(lp94
sg61
g7
sg62
(lp95
(I4
g39
tp96
asg64
I5
sg65
I0
sg66
I1
sba(idtree_util_dtr
node
p97
(dp98
g58
(lp99
sg61
g8
sg62
(lp100
(I8
g41
tp101
asg64
I6
sg65
I0
sg66
I1
sba(idtree_util_dtr
node
p102
(dp103
g58
(lp104
sg61
S'a'
sg62
(lp105
(I8
S'det'
p106
tp107
asg64
I7
sg65
I0
sg66
I1
sba(idtree_util_dtr
node
p108
(dp109
g58
(lp110
(I6
g41
tp111
a(I7
g106
tp112
asg61
g9
sg62
(lp113
(I4
g40
tp114
asg64
I8
sg65
I0
sg66
I1
sba(idtree_util_dtr
node
p115
(dp116
g58
(lp117
sg61
g10
sg62
(lp118
(I11
g43
tp119
asg64
I9
sg65
I0
sg66
I1
sba(idtree_util_dtr
node
p120
(dp121
g58
(lp122
sg61
g11
sg62
(lp123
(I11
g44
tp124
asg64
I10
sg65
I0
sg66
I1
sba(idtree_util_dtr
node
p125
(dp126
g58
(lp127
(I2
g42
tp128
a(I9
g43
tp129
a(I10
g44
tp130
a(I14
S'nmod'
p131
tp132
a(I17
S'nmod'
p133
tp134
asg61
g12
sg62
(lp135
(I0
g35
tp136
asg64
I11
sg65
I0
sg66
I1
sba(idtree_util_dtr
node
p137
(dp138
g58
(lp139
sg61
g13
sg62
(lp140
(I14
S'case'
p141
tp142
asg64
I12
sg65
I0
sg66
I1
sba(idtree_util_dtr
node
p143
(dp144
g58
(lp145
sg61
S'the'
p146
sg62
(lp147
(I14
S'det'
p148
tp149
asg64
I1
sg65
I0
sg66
I1
sba(idtree_util_dtr
node
p150
(dp151
g58
(lp152
(I12
g141
tp153
a(I13
g148
tp154
asg61
g14
sg62
(lp155
(I11
g131
tp156
asg64
I13
sg65
I0
sg66
I1
sba(idtree_util_dtr
node
p157
(dp158
g58
(lp159
sg61
g15
sg62
(lp160
(I17
S'case'
p161
tp162
asg64
I14
sg65
I0
sg66
I1
sba(idtree_util_dtr
node
p163
(dp164
g58
(lp165
sg61
g16
sg62
(lp166
(I17
S'det'
p167
tp168
asg64
I15
sg65
I0
sg66
I1
sba(idtree_util_dtr
node
p169
(dp170
g58
(lp171
(I15
g161
tp172
a(I16
g167
tp173
asg61
S'boy'
p174
sg62
(lp175
(I11
g133
tp176
asg64
I2
sg65
I0
sg66
I1
sbasS'dist'
p177
I0
sS'qid'
p178
I1
sba(idtree_util_dtr
dtree
p179
(dp180
g53
I-1
sg54
(lp181
(idtree_util_dtr
node
p182
(dp183
g58
(lp184
(I3
S'root'
p185
tp186
asg61
S'ROOT'
p187
sg62
(lp188
sg64
I0
sg65
I0
sg66
I1
sba(idtree_util_dtr
node
p189
(dp190
g58
(lp191
sg61
g17
sg62
(lp192
(I2
g45
tp193
asg64
I16
sg65
I0
sg66
I1
sba(idtree_util_dtr
node
p194
(dp195
g58
(lp196
(I1
g45
tp197
asg61
g18
sg62
(lp198
(I3
g46
tp199
asg64
I17
sg65
I0
sg66
I1
sba(idtree_util_dtr
node
p200
(dp201
g58
(lp202
(I2
g46
tp203
a(I6
S'nmod'
p204
tp205
asg61
g19
sg62
(lp206
(I0
g185
tp207
asg64
I18
sg65
I0
sg66
I1
sba(idtree_util_dtr
node
p208
(dp209
g58
(lp210
sg61
S'on'
p211
sg62
(lp212
(I6
S'case'
p213
tp214
asg64
I6
sg65
I0
sg66
I1
sba(idtree_util_dtr
node
p215
(dp216
g58
(lp217
sg61
S'a'
sg62
(lp218
(I6
S'det'
p219
tp220
asg64
I7
sg65
I0
sg66
I1
sba(idtree_util_dtr
node
p221
(dp222
g58
(lp223
(I4
g213
tp224
a(I5
g219
tp225
a(I9
S'nmod'
p226
tp227
asg61
S'skateboard'
p228
sg62
(lp229
(I3
g204
tp230
asg64
I8
sg65
I0
sg66
I1
sba(idtree_util_dtr
node
p231
(dp232
g58
(lp233
sg61
g20
sg62
(lp234
(I9
S'case'
p235
tp236
asg64
I19
sg65
I0
sg66
I1
sba(idtree_util_dtr
node
p237
(dp238
g58
(lp239
sg61
S'a'
sg62
(lp240
(I9
S'det'
p241
tp242
asg64
I7
sg65
I0
sg66
I1
sba(idtree_util_dtr
node
p243
(dp244
g58
(lp245
(I7
g235
tp246
a(I8
g241
tp247
asg61
g21
sg62
(lp248
(I6
g226
tp249
asg64
I20
sg65
I0
sg66
I1
sbasg177
I0
sg178
I2
sba(idtree_util_dtr
dtree
p250
(dp251
g53
I-1
sg54
(lp252
(idtree_util_dtr
node
p253
(dp254
g58
(lp255
(I3
S'root'
p256
tp257
asg61
S'ROOT'
p258
sg62
(lp259
sg64
I0
sg65
I0
sg66
I1
sba(idtree_util_dtr
node
p260
(dp261
g58
(lp262
sg61
S'Two'
p263
sg62
(lp264
(I2
S'nummod'
p265
tp266
asg64
I16
sg65
I0
sg66
I1
sba(idtree_util_dtr
node
p267
(dp268
g58
(lp269
(I1
g265
tp270
asg61
g22
sg62
(lp271
(I3
S'nsubj'
p272
tp273
asg64
I21
sg65
I0
sg66
I1
sba(idtree_util_dtr
node
p274
(dp275
g58
(lp276
(I2
g272
tp277
a(I7
S'nmod'
p278
tp279
asg61
S'play'
p280
sg62
(lp281
(I0
g256
tp282
asg64
I18
sg65
I0
sg66
I1
sba(idtree_util_dtr
node
p283
(dp284
g58
(lp285
sg61
S'on'
p286
sg62
(lp287
(I7
S'case'
p288
tp289
asg64
I6
sg65
I0
sg66
I1
sba(idtree_util_dtr
node
p290
(dp291
g58
(lp292
sg61
S'a'
sg62
(lp293
(I7
S'det'
p294
tp295
asg64
I7
sg65
I0
sg66
I1
sba(idtree_util_dtr
node
p296
(dp297
g58
(lp298
sg61
g23
sg62
(lp299
(I7
g47
tp300
asg64
I22
sg65
I0
sg66
I1
sba(idtree_util_dtr
node
p301
(dp302
g58
(lp303
(I4
g288
tp304
a(I5
g294
tp305
a(I6
g47
tp306
asg61
S'skateboard'
p307
sg62
(lp308
(I3
g278
tp309
asg64
I8
sg65
I0
sg66
I1
sbasg177
I0
sg178
I3
sba(idtree_util_dtr
dtree
p310
(dp311
g53
I-1
sg54
(lp312
(idtree_util_dtr
node
p313
(dp314
g58
(lp315
(I3
S'root'
p316
tp317
asg61
S'ROOT'
p318
sg62
(lp319
sg64
I0
sg65
I0
sg66
I1
sba(idtree_util_dtr
node
p320
(dp321
g58
(lp322
sg61
S'Two'
p323
sg62
(lp324
(I3
S'nummod'
p325
tp326
asg64
I16
sg65
I0
sg66
I1
sba(idtree_util_dtr
node
p327
(dp328
g58
(lp329
sg61
g24
sg62
(lp330
(I3
S'amod'
p331
tp332
asg64
I23
sg65
I0
sg66
I1
sba(idtree_util_dtr
node
p333
(dp334
g58
(lp335
(I1
g325
tp336
a(I2
g331
tp337
a(I6
S'nmod'
p338
tp339
a(I7
S'acl'
p340
tp341
asg61
g25
sg62
(lp342
(I0
g316
tp343
asg64
I24
sg65
I0
sg66
I1
sba(idtree_util_dtr
node
p344
(dp345
g58
(lp346
sg61
S'in'
p347
sg62
(lp348
(I6
S'case'
p349
tp350
asg64
I19
sg65
I0
sg66
I1
sba(idtree_util_dtr
node
p351
(dp352
g58
(lp353
sg61
g26
sg62
(lp354
(I6
S'amod'
p355
tp356
asg64
I25
sg65
I0
sg66
I1
sba(idtree_util_dtr
node
p357
(dp358
g58
(lp359
(I4
g349
tp360
a(I5
g355
tp361
asg61
g27
sg62
(lp362
(I3
g338
tp363
asg64
I26
sg65
I0
sg66
I1
sba(idtree_util_dtr
node
p364
(dp365
g58
(lp366
(I10
S'nmod'
p367
tp368
asg61
g28
sg62
(lp369
(I3
g340
tp370
asg64
I27
sg65
I0
sg66
I1
sba(idtree_util_dtr
node
p371
(dp372
g58
(lp373
sg61
S'on'
p374
sg62
(lp375
(I10
S'case'
p376
tp377
asg64
I6
sg65
I0
sg66
I1
sba(idtree_util_dtr
node
p378
(dp379
g58
(lp380
sg61
S'a'
sg62
(lp381
(I10
S'det'
p382
tp383
asg64
I7
sg65
I0
sg66
I1
sba(idtree_util_dtr
node
p384
(dp385
g58
(lp386
(I8
g376
tp387
a(I9
g382
tp388
asg61
S'skateboard'
p389
sg62
(lp390
(I7
g367
tp391
asg64
I8
sg65
I0
sg66
I1
sbasg177
I0
sg178
I4
sba(idtree_util_dtr
dtree
p392
(dp393
g53
I-1
sg54
(lp394
(idtree_util_dtr
node
p395
(dp396
g58
(lp397
(I3
S'root'
p398
tp399
asg61
S'ROOT'
p400
sg62
(lp401
sg64
I0
sg65
I0
sg66
I1
sba(idtree_util_dtr
node
p402
(dp403
g58
(lp404
sg61
g29
sg62
(lp405
(I3
S'nummod'
p406
tp407
asg64
I28
sg65
I0
sg66
I1
sba(idtree_util_dtr
node
p408
(dp409
g58
(lp410
sg61
g30
sg62
(lp411
(I3
S'amod'
p412
tp413
asg64
I29
sg65
I0
sg66
I1
sba(idtree_util_dtr
node
p414
(dp415
g58
(lp416
(I1
g406
tp417
a(I2
g412
tp418
a(I6
S'nmod'
p419
tp420
asg61
S'children'
p421
sg62
(lp422
(I0
g398
tp423
asg64
I24
sg65
I0
sg66
I1
sba(idtree_util_dtr
node
p424
(dp425
g58
(lp426
sg61
S'on'
p427
sg62
(lp428
(I6
S'case'
p429
tp430
asg64
I6
sg65
I0
sg66
I1
sba(idtree_util_dtr
node
p431
(dp432
g58
(lp433
sg61
S'a'
sg62
(lp434
(I6
S'det'
p435
tp436
asg64
I7
sg65
I0
sg66
I1
sba(idtree_util_dtr
node
p437
(dp438
g58
(lp439
(I4
g429
tp440
a(I5
g435
tp441
a(I7
S'acl'
p442
tp443
asg61
S'skateboard'
p444
sg62
(lp445
(I3
g419
tp446
asg64
I8
sg65
I0
sg66
I1
sba(idtree_util_dtr
node
p447
(dp448
g58
(lp449
(I10
S'nmod'
p450
tp451
asg61
g31
sg62
(lp452
(I6
g442
tp453
asg64
I30
sg65
I0
sg66
I1
sba(idtree_util_dtr
node
p454
(dp455
g58
(lp456
sg61
g32
sg62
(lp457
(I10
S'case'
p458
tp459
asg64
I31
sg65
I0
sg66
I1
sba(idtree_util_dtr
node
p460
(dp461
g58
(lp462
sg61
S'a'
sg62
(lp463
(I10
S'det'
p464
tp465
asg64
I7
sg65
I0
sg66
I1
sba(idtree_util_dtr
node
p466
(dp467
g58
(lp468
(I8
g458
tp469
a(I9
g464
tp470
asg61
g33
sg62
(lp471
(I7
g450
tp472
asg64
I32
sg65
I0
sg66
I1
sbasg177
I0
sg178
I5
sbast.